; Function Attrs: mustprogress uwtable
define hidden noundef nonnull align 8 dereferenceable(184) ptr @_ZN7datalog19sparse_table_plugin3getERNS_10table_baseE(ptr noundef nonnull readonly align 8 dereferenceable(36) %t) local_unnamed_addr #3 align 2 {
entry:
  %0 = tail call ptr @__dynamic_cast(ptr nonnull %t, ptr nonnull @_ZTIN7datalog10table_baseE, ptr nonnull @_ZTIN7datalog12sparse_tableE, i64 0) #25
  %1 = icmp eq ptr %0, null
  br i1 %1, label %dynamic_cast.bad_cast, label %dynamic_cast.end

dynamic_cast.bad_cast:                            ; preds = %entry
  tail call void @__cxa_bad_cast() #26
  unreachable

dynamic_cast.end:                                 ; preds = %entry
  ret ptr %0
}